; Function Attrs: nounwind uwtable
define hidden void @PLATFORM_hid_close(ptr noundef captures(address_is_null) %0) #1 {
  %.not = icmp eq ptr %0, null
  br i1 %.not, label %18, label %2

2:                                                ; preds = %1
  %3 = load i32, ptr %0, align 8
  %4 = tail call i32 @close(i32 noundef %3) #22
  %5 = getelementptr i8, ptr %0, i64 16
  %.val = load ptr, ptr %5, align 8
  tail call void @free(ptr noundef %.val) #22
  %6 = tail call zeroext i1 @SDL_ClearError_REAL() #22
  %7 = getelementptr inbounds nuw i8, ptr %0, i64 24
  %8 = load ptr, ptr %7, align 8
  %.not9.i = icmp eq ptr %8, null
  br i1 %.not9.i, label %PLATFORM_hid_free_enumeration.exit, label %.lr.ph.i

.lr.ph.i:                                         ; preds = %2, %.lr.ph.i
  %.010.i = phi ptr [ %10, %.lr.ph.i ], [ %8, %2 ]
  %9 = getelementptr inbounds nuw i8, ptr %.010.i, i64 56
  %10 = load ptr, ptr %9, align 8
  %11 = load ptr, ptr %.010.i, align 8
  tail call void @free(ptr noundef %11) #22
  %12 = getelementptr inbounds nuw i8, ptr %.010.i, i64 16
  %13 = load ptr, ptr %12, align 8
  tail call void @free(ptr noundef %13) #22
  %14 = getelementptr inbounds nuw i8, ptr %.010.i, i64 32
  %15 = load ptr, ptr %14, align 8
  tail call void @free(ptr noundef %15) #22
  %16 = getelementptr inbounds nuw i8, ptr %.010.i, i64 40
  %17 = load ptr, ptr %16, align 8
  tail call void @free(ptr noundef %17) #22
  tail call void @free(ptr noundef nonnull %.010.i) #22
  %.not.i = icmp eq ptr %10, null
  br i1 %.not.i, label %PLATFORM_hid_free_enumeration.exit, label %.lr.ph.i, !llvm.loop !8

PLATFORM_hid_free_enumeration.exit:               ; preds = %.lr.ph.i, %2
  tail call void @free(ptr noundef nonnull %0) #22
  br label %18

18:                                               ; preds = %1, %PLATFORM_hid_free_enumeration.exit
  ret void
}